target datalayout = "e-m:e-p270:32:32-p271:32:32-p272:64:64-i64:64-i128:128-f80:128-n8:16:32:64-S128"
target triple = "x86_64-pc-linux-gnu"

%struct.pcre2_memctl = type { ptr, ptr, ptr }
%struct.pcre2_real_convert_context_8 = type { %struct.pcre2_memctl, i32, i32 }

@_pcre2_default_convert_context_8 = hidden global %struct.pcre2_real_convert_context_8 { %struct.pcre2_memctl { ptr @default_malloc, ptr @default_free, ptr null }, i32 47, i32 92 }, align 8

; Function Attrs: nounwind uwtable
define hidden ptr @_pcre2_memctl_malloc_8(i64 noundef %0, ptr noundef %1) #0 {
  %3 = alloca ptr, align 8
  %4 = alloca i64, align 8
  %5 = alloca ptr, align 8
  %6 = alloca ptr, align 8
  %7 = alloca ptr, align 8
  %8 = alloca i32, align 4
  store i64 %0, ptr %4, align 8, !tbaa !4
  store ptr %1, ptr %5, align 8, !tbaa !8
  call void @llvm.lifetime.start.p0(i64 8, ptr %6) #6
  call void @llvm.lifetime.start.p0(i64 8, ptr %7) #6
  %9 = load ptr, ptr %5, align 8, !tbaa !8
  %10 = icmp eq ptr %9, null
  br i1 %10, label %11, label %14

11:                                               ; preds = %2
  %12 = load i64, ptr %4, align 8, !tbaa !4
  %13 = call noalias ptr @malloc(i64 noundef %12) #7
  br label %23

14:                                               ; preds = %2
  %15 = load ptr, ptr %5, align 8, !tbaa !8
  %16 = getelementptr inbounds nuw %struct.pcre2_memctl, ptr %15, i32 0, i32 0
  %17 = load ptr, ptr %16, align 8, !tbaa !11
  %18 = load i64, ptr %4, align 8, !tbaa !4
  %19 = load ptr, ptr %5, align 8, !tbaa !8
  %20 = getelementptr inbounds nuw %struct.pcre2_memctl, ptr %19, i32 0, i32 2
  %21 = load ptr, ptr %20, align 8, !tbaa !13
  %22 = call ptr %17(i64 noundef %18, ptr noundef %21)
  br label %23

23:                                               ; preds = %14, %11
  %24 = phi ptr [ %13, %11 ], [ %22, %14 ]
  store ptr %24, ptr %7, align 8, !tbaa !14
  %25 = load ptr, ptr %7, align 8, !tbaa !14
  %26 = icmp eq ptr %25, null
  br i1 %26, label %27, label %28

27:                                               ; preds = %23
  store ptr null, ptr %3, align 8
  store i32 1, ptr %8, align 4
  br label %44

28:                                               ; preds = %23
  %29 = load ptr, ptr %7, align 8, !tbaa !14
  store ptr %29, ptr %6, align 8, !tbaa !8
  %30 = load ptr, ptr %5, align 8, !tbaa !8
  %31 = icmp eq ptr %30, null
  br i1 %31, label %32, label %39

32:                                               ; preds = %28
  %33 = load ptr, ptr %6, align 8, !tbaa !8
  %34 = getelementptr inbounds nuw %struct.pcre2_memctl, ptr %33, i32 0, i32 0
  store ptr @default_malloc, ptr %34, align 8, !tbaa !11
  %35 = load ptr, ptr %6, align 8, !tbaa !8
  %36 = getelementptr inbounds nuw %struct.pcre2_memctl, ptr %35, i32 0, i32 1
  store ptr @default_free, ptr %36, align 8, !tbaa !15
  %37 = load ptr, ptr %6, align 8, !tbaa !8
  %38 = getelementptr inbounds nuw %struct.pcre2_memctl, ptr %37, i32 0, i32 2
  store ptr null, ptr %38, align 8, !tbaa !13
  br label %42

39:                                               ; preds = %28
  %40 = load ptr, ptr %6, align 8, !tbaa !8
  %41 = load ptr, ptr %5, align 8, !tbaa !8
  call void @llvm.memcpy.p0.p0.i64(ptr align 8 %40, ptr align 8 %41, i64 24, i1 false), !tbaa.struct !16
  br label %42

42:                                               ; preds = %39, %32
  %43 = load ptr, ptr %7, align 8, !tbaa !14
  store ptr %43, ptr %3, align 8
  store i32 1, ptr %8, align 4
  br label %44

44:                                               ; preds = %42, %27
  call void @llvm.lifetime.end.p0(i64 8, ptr %7) #6
  call void @llvm.lifetime.end.p0(i64 8, ptr %6) #6
  %45 = load ptr, ptr %3, align 8
  ret ptr %45
}

; Function Attrs: nounwind uwtable
define dso_local ptr @php_pcre2_convert_context_create(ptr noundef %0) #0 {
  %2 = alloca ptr, align 8
  %3 = alloca ptr, align 8
  %4 = alloca ptr, align 8
  %5 = alloca i32, align 4
  store ptr %0, ptr %3, align 8, !tbaa !17
  call void @llvm.lifetime.start.p0(i64 8, ptr %4) #6
  %6 = load ptr, ptr %3, align 8, !tbaa !17
  %7 = call ptr @_pcre2_memctl_malloc_8(i64 noundef 32, ptr noundef %6)
  store ptr %7, ptr %4, align 8, !tbaa !35
  %8 = load ptr, ptr %4, align 8, !tbaa !35
  %9 = icmp eq ptr %8, null
  br i1 %9, label %10, label %11

10:                                               ; preds = %1
  store ptr null, ptr %2, align 8
  store i32 1, ptr %5, align 4
  br label %20

11:                                               ; preds = %1
  %12 = load ptr, ptr %4, align 8, !tbaa !35
  call void @llvm.memcpy.p0.p0.i64(ptr align 8 %12, ptr align 8 @_pcre2_default_convert_context_8, i64 32, i1 false), !tbaa.struct !37
  %13 = load ptr, ptr %3, align 8, !tbaa !17
  %14 = icmp ne ptr %13, null
  br i1 %14, label %15, label %18

15:                                               ; preds = %11
  %16 = load ptr, ptr %4, align 8, !tbaa !35
  %17 = load ptr, ptr %3, align 8, !tbaa !17
  call void @llvm.memcpy.p0.p0.i64(ptr align 8 %16, ptr align 8 %17, i64 24, i1 false), !tbaa.struct !16
  br label %18

18:                                               ; preds = %15, %11
  %19 = load ptr, ptr %4, align 8, !tbaa !35
  store ptr %19, ptr %2, align 8
  store i32 1, ptr %5, align 4
  br label %20

20:                                               ; preds = %18, %10
  call void @llvm.lifetime.end.p0(i64 8, ptr %4) #6
  %21 = load ptr, ptr %2, align 8
  ret ptr %21
}